; Function Attrs: mustprogress nofree norecurse nosync nounwind memory(readwrite, inaccessiblemem: none) uwtable
define void @_Z16llama_set_s_copyR13llama_context(ptr noundef nonnull readonly align 8 captures(none) dereferenceable(1120) %0) local_unnamed_addr #0 {
  %2 = getelementptr inbounds nuw i8, ptr %0, i64 356
  %3 = load i32, ptr %2, align 4, !tbaa !3
  %4 = getelementptr inbounds nuw i8, ptr %0, i64 1072
  %5 = load ptr, ptr %4, align 8, !tbaa !135
  %6 = getelementptr inbounds nuw i8, ptr %5, i64 248
  %7 = load ptr, ptr %6, align 8, !tbaa !123
  %.not = icmp eq i32 %3, 0
  br i1 %.not, label %._crit_edge, label %.lr.ph

.lr.ph:                                           ; preds = %1
  %8 = getelementptr inbounds nuw i8, ptr %0, i64 376
  %9 = load ptr, ptr %8, align 8, !tbaa !126
  %wide.trip.count = zext i32 %3 to i64
  br label %10

._crit_edge:                                      ; preds = %10, %1
  ret void

10:                                               ; preds = %.lr.ph, %10
  %indvars.iv = phi i64 [ 0, %.lr.ph ], [ %indvars.iv.next, %10 ]
  %11 = getelementptr inbounds nuw %struct.llama_kv_cell, ptr %9, i64 %indvars.iv, i32 2
  %12 = load i32, ptr %11, align 8, !tbaa !136
  %13 = getelementptr inbounds nuw i32, ptr %7, i64 %indvars.iv
  store i32 %12, ptr %13, align 4, !tbaa !132
  %indvars.iv.next = add nuw nsw i64 %indvars.iv, 1
  %exitcond.not = icmp eq i64 %indvars.iv.next, %wide.trip.count
  br i1 %exitcond.not, label %._crit_edge, label %10, !llvm.loop !137
}